; Function Attrs: mustprogress nofree norecurse nosync nounwind willreturn memory(argmem: readwrite) uwtable
define void @dt_develop_blend_init_blend_parameters(ptr noundef writeonly captures(none) initializes((0, 420)) %0, i32 noundef %1) local_unnamed_addr #3 {
  tail call void @llvm.memcpy.p0.p0.i64(ptr noundef nonnull align 4 dereferenceable(420) %0, ptr noundef nonnull align 4 dereferenceable(420) @_default_blendop_params, i64 420, i1 false)
  %3 = getelementptr inbounds nuw i8, ptr %0, i64 4
  store i32 %1, ptr %3, align 4, !tbaa !28
  %4 = icmp eq i32 %1, 4
  br i1 %4, label %5, label %_blend_init_blendif_boost_parameters.exit

5:                                                ; preds = %2
  %6 = getelementptr inbounds nuw i8, ptr %0, i64 356
  store float 0xC01A934F00000000, ptr %6, align 4, !tbaa !31
  %7 = getelementptr inbounds nuw i8, ptr %0, i64 360
  store float 0xC01A934F00000000, ptr %7, align 4, !tbaa !31
  %8 = getelementptr inbounds nuw i8, ptr %0, i64 372
  store float 0xC01A934F00000000, ptr %8, align 4, !tbaa !31
  %9 = getelementptr inbounds nuw i8, ptr %0, i64 376
  store float 0xC01A934F00000000, ptr %9, align 4, !tbaa !31
  br label %_blend_init_blendif_boost_parameters.exit

_blend_init_blendif_boost_parameters.exit:        ; preds = %2, %5
  ret void
}